target datalayout = "e-m:e-p270:32:32-p271:32:32-p272:64:64-i64:64-i128:128-f80:128-n8:16:32:64-S128"
target triple = "x86_64-pc-linux-gnu"

%"class.icu_77::GMTOffsetField" = type <{ ptr, ptr, i32, i8, [3 x i8] }>

@_ZTVN6icu_7714GMTOffsetFieldE = unnamed_addr constant { [4 x ptr] } { [4 x ptr] [ptr null, ptr @_ZTIN6icu_7714GMTOffsetFieldE, ptr @_ZN6icu_7714GMTOffsetFieldD1Ev, ptr @_ZN6icu_7714GMTOffsetFieldD0Ev] }, align 8

; Function Attrs: mustprogress nounwind uwtable
define void @_ZN6icu_7714GMTOffsetFieldC2Ev(ptr noundef nonnull align 8 dereferenceable(21) %0) unnamed_addr #0 align 2 {
  %2 = alloca ptr, align 8
  store ptr %0, ptr %2, align 8, !tbaa !23
  %3 = load ptr, ptr %2, align 8
  store ptr getelementptr inbounds inrange(-16, 16) ({ [4 x ptr] }, ptr @_ZTVN6icu_7714GMTOffsetFieldE, i32 0, i32 0, i32 2), ptr %3, align 8, !tbaa !25
  %4 = getelementptr inbounds nuw %"class.icu_77::GMTOffsetField", ptr %3, i32 0, i32 1
  store ptr null, ptr %4, align 8, !tbaa !27
  %5 = getelementptr inbounds nuw %"class.icu_77::GMTOffsetField", ptr %3, i32 0, i32 2
  store i32 0, ptr %5, align 8, !tbaa !31
  %6 = getelementptr inbounds nuw %"class.icu_77::GMTOffsetField", ptr %3, i32 0, i32 3
  store i8 0, ptr %6, align 4, !tbaa !32
  ret void
}