; Function Attrs: mustprogress nofree norecurse nosync nounwind willreturn memory(argmem: write) uwtable
define void @_ZN6icu_7714GMTOffsetFieldC2Ev(ptr noundef nonnull writeonly align 8 captures(none) dereferenceable(21) initializes((0, 21)) %0) unnamed_addr #10 align 2 {
  store ptr getelementptr inbounds nuw inrange(-16, 16) (i8, ptr @_ZTVN6icu_7714GMTOffsetFieldE, i64 16), ptr %0, align 8, !tbaa !15
  %2 = getelementptr inbounds nuw i8, ptr %0, i64 8
  store ptr null, ptr %2, align 8, !tbaa !17
  %3 = getelementptr inbounds nuw i8, ptr %0, i64 16
  store i32 0, ptr %3, align 8, !tbaa !21
  %4 = getelementptr inbounds nuw i8, ptr %0, i64 20
  store i8 0, ptr %4, align 4, !tbaa !22
  ret void
}